; Function Attrs: mustprogress uwtable
define void @_ZN8proxygen12WorkerThread4waitEv(ptr noundef nonnull align 8 dereferenceable(80) %this) local_unnamed_addr #0 align 2 personality ptr @__gxx_personality_v0 {
entry:
  %joinLock_ = getelementptr inbounds i8, ptr %this, i64 24
  %call1.i.i.i = tail call noundef i32 @pthread_mutex_lock(ptr noundef nonnull %joinLock_) #16
  %tobool.not.i.i = icmp eq i32 %call1.i.i.i, 0
  br i1 %tobool.not.i.i, label %_ZNSt10lock_guardISt5mutexEC2ERS0_.exit, label %if.then.i.i

if.then.i.i:                                      ; preds = %entry
  tail call void @_ZSt20__throw_system_errori(i32 noundef %call1.i.i.i) #19
  unreachable

_ZNSt10lock_guardISt5mutexEC2ERS0_.exit:          ; preds = %entry
  %thread_ = getelementptr inbounds i8, ptr %this, i64 16
  %agg.tmp.sroa.0.0.copyload.i = load i64, ptr %thread_, align 8
  %cmp.i.i.not = icmp eq i64 %agg.tmp.sroa.0.0.copyload.i, 0
  br i1 %cmp.i.i.not, label %if.end, label %if.then

if.then:                                          ; preds = %_ZNSt10lock_guardISt5mutexEC2ERS0_.exit
  invoke void @_ZNSt6thread4joinEv(ptr noundef nonnull align 8 dereferenceable(8) %thread_)
          to label %if.end unwind label %lpad

lpad:                                             ; preds = %if.then
  %0 = landingpad { ptr, i32 }
          cleanup
  %call1.i.i.i1 = tail call noundef i32 @pthread_mutex_unlock(ptr noundef nonnull %joinLock_) #16
  resume { ptr, i32 } %0

if.end:                                           ; preds = %if.then, %_ZNSt10lock_guardISt5mutexEC2ERS0_.exit
  %call1.i.i.i2 = tail call noundef i32 @pthread_mutex_unlock(ptr noundef nonnull %joinLock_) #16
  ret void
}